target datalayout = "e-m:e-p270:32:32-p271:32:32-p272:64:64-i64:64-i128:128-f80:128-n8:16:32:64-S128"
target triple = "x86_64-pc-linux-gnu"

%struct.pem2der_pass_data_st = type { ptr, ptr }

; Function Attrs: nounwind uwtable
define internal i32 @pem2der_pass_helper(ptr noundef %0, i32 noundef %1, i32 noundef %2, ptr noundef %3) #0 {
  %5 = alloca i32, align 4
  %6 = alloca ptr, align 8
  %7 = alloca i32, align 4
  %8 = alloca i32, align 4
  %9 = alloca ptr, align 8
  %10 = alloca ptr, align 8
  %11 = alloca i64, align 8
  %12 = alloca i32, align 4
  store ptr %0, ptr %6, align 8, !tbaa !16
  store i32 %1, ptr %7, align 4, !tbaa !14
  store i32 %2, ptr %8, align 4, !tbaa !14
  store ptr %3, ptr %9, align 8, !tbaa !3
  call void @llvm.lifetime.start.p0(i64 8, ptr %10) #5
  %13 = load ptr, ptr %9, align 8, !tbaa !3
  store ptr %13, ptr %10, align 8, !tbaa !40
  call void @llvm.lifetime.start.p0(i64 8, ptr %11) #5
  %14 = load ptr, ptr %10, align 8, !tbaa !40
  %15 = icmp eq ptr %14, null
  br i1 %15, label %33, label %16

16:                                               ; preds = %4
  %17 = load ptr, ptr %10, align 8, !tbaa !40
  %18 = getelementptr inbounds nuw %struct.pem2der_pass_data_st, ptr %17, i32 0, i32 0
  %19 = load ptr, ptr %18, align 8, !tbaa !20
  %20 = icmp eq ptr %19, null
  br i1 %20, label %33, label %21

21:                                               ; preds = %16
  %22 = load ptr, ptr %10, align 8, !tbaa !40
  %23 = getelementptr inbounds nuw %struct.pem2der_pass_data_st, ptr %22, i32 0, i32 0
  %24 = load ptr, ptr %23, align 8, !tbaa !20
  %25 = load ptr, ptr %6, align 8, !tbaa !16
  %26 = load i32, ptr %7, align 4, !tbaa !14
  %27 = sext i32 %26 to i64
  %28 = load ptr, ptr %10, align 8, !tbaa !40
  %29 = getelementptr inbounds nuw %struct.pem2der_pass_data_st, ptr %28, i32 0, i32 1
  %30 = load ptr, ptr %29, align 8, !tbaa !22
  %31 = call i32 %24(ptr noundef %25, i64 noundef %27, ptr noundef %11, ptr noundef null, ptr noundef %30)
  %32 = icmp ne i32 %31, 0
  br i1 %32, label %34, label %33

33:                                               ; preds = %21, %16, %4
  store i32 -1, ptr %5, align 4
  store i32 1, ptr %12, align 4
  br label %37

34:                                               ; preds = %21
  %35 = load i64, ptr %11, align 8, !tbaa !18
  %36 = trunc i64 %35 to i32
  store i32 %36, ptr %5, align 4
  store i32 1, ptr %12, align 4
  br label %37

37:                                               ; preds = %34, %33
  call void @llvm.lifetime.end.p0(i64 8, ptr %11) #5
  call void @llvm.lifetime.end.p0(i64 8, ptr %10) #5
  %38 = load i32, ptr %5, align 4
  ret i32 %38
}