; Function Attrs: nounwind uwtable
define internal i32 @pem2der_pass_helper(ptr noundef %0, i32 noundef %1, i32 %2, ptr noundef readonly captures(address_is_null) %3) #0 {
  %5 = alloca i64, align 8
  call void @llvm.lifetime.start.p0(i64 8, ptr nonnull %5) #5
  %6 = icmp eq ptr %3, null
  br i1 %6, label %18, label %7

7:                                                ; preds = %4
  %8 = load ptr, ptr %3, align 8, !tbaa !15
  %9 = icmp eq ptr %8, null
  br i1 %9, label %18, label %10

10:                                               ; preds = %7
  %11 = sext i32 %1 to i64
  %12 = getelementptr inbounds nuw i8, ptr %3, i64 8
  %13 = load ptr, ptr %12, align 8, !tbaa !17
  %14 = call i32 %8(ptr noundef %0, i64 noundef %11, ptr noundef nonnull %5, ptr noundef null, ptr noundef %13) #5
  %.not = icmp eq i32 %14, 0
  br i1 %.not, label %18, label %15

15:                                               ; preds = %10
  %16 = load i64, ptr %5, align 8, !tbaa !11
  %17 = trunc i64 %16 to i32
  br label %18

18:                                               ; preds = %4, %7, %10, %15
  %.0 = phi i32 [ %17, %15 ], [ -1, %10 ], [ -1, %7 ], [ -1, %4 ]
  call void @llvm.lifetime.end.p0(i64 8, ptr nonnull %5) #5
  ret i32 %.0
}